
build/bin/rv32imac/qemu-sifive_u/hello:     file format elf32-littleriscv


Disassembly of section .text:

80000000 <_start>:
80000000:	00000297          	auipc	t0,0x0
80000004:	03428293          	addi	t0,t0,52 # 80000034 <trap_vector>
80000008:	30529073          	csrw	mtvec,t0
8000000c:	f14022f3          	csrr	t0,mhartid
80000010:	00a29293          	slli	t0,t0,0xa
80000014:	00001117          	auipc	sp,0x1
80000018:	45c10113          	addi	sp,sp,1116 # 80001470 <stacks+0x400>
8000001c:	00510133          	add	sp,sp,t0
80000020:	f1402573          	csrr	a0,mhartid
80000024:	00051463          	bnez	a0,8000002c <park>
80000028:	13c0006f          	j	80000164 <libfemto_start_main>

8000002c <park>:
8000002c:	10500073          	wfi
80000030:	ffdff06f          	j	8000002c <park>

80000034 <trap_vector>:
80000034:	fc010113          	addi	sp,sp,-64
80000038:	00112023          	sw	ra,0(sp)
8000003c:	00a12223          	sw	a0,4(sp)
80000040:	00b12423          	sw	a1,8(sp)
80000044:	00c12623          	sw	a2,12(sp)
80000048:	00d12823          	sw	a3,16(sp)
8000004c:	00e12a23          	sw	a4,20(sp)
80000050:	00f12c23          	sw	a5,24(sp)
80000054:	01012e23          	sw	a6,28(sp)
80000058:	03112023          	sw	a7,32(sp)
8000005c:	02512223          	sw	t0,36(sp)
80000060:	02612423          	sw	t1,40(sp)
80000064:	02712623          	sw	t2,44(sp)
80000068:	03c12823          	sw	t3,48(sp)
8000006c:	03d12a23          	sw	t4,52(sp)
80000070:	03e12c23          	sw	t5,56(sp)
80000074:	03f12e23          	sw	t6,60(sp)
80000078:	00010513          	mv	a0,sp
8000007c:	342025f3          	csrr	a1,mcause
80000080:	34102673          	csrr	a2,mepc
80000084:	140000ef          	jal	ra,800001c4 <trap_handler>
80000088:	00012083          	lw	ra,0(sp)
8000008c:	00412503          	lw	a0,4(sp)
80000090:	00812583          	lw	a1,8(sp)
80000094:	00c12603          	lw	a2,12(sp)
80000098:	01012683          	lw	a3,16(sp)
8000009c:	01412703          	lw	a4,20(sp)
800000a0:	01812783          	lw	a5,24(sp)
800000a4:	01c12803          	lw	a6,28(sp)
800000a8:	02012883          	lw	a7,32(sp)
800000ac:	02412283          	lw	t0,36(sp)
800000b0:	02812303          	lw	t1,40(sp)
800000b4:	02c12383          	lw	t2,44(sp)
800000b8:	03012e03          	lw	t3,48(sp)
800000bc:	03412e83          	lw	t4,52(sp)
800000c0:	03812f03          	lw	t5,56(sp)
800000c4:	03c12f83          	lw	t6,60(sp)
800000c8:	04010113          	addi	sp,sp,64
800000cc:	30200073          	mret

800000d0 <arch_setup>:
800000d0:	ff010113          	addi	sp,sp,-16
800000d4:	00001517          	auipc	a0,0x1
800000d8:	f8050513          	addi	a0,a0,-128 # 80001054 <console_sifive_uart>
800000dc:	00112623          	sw	ra,12(sp)
800000e0:	054000ef          	jal	ra,80000134 <register_console>
800000e4:	00c12083          	lw	ra,12(sp)
800000e8:	00001517          	auipc	a0,0x1
800000ec:	f2850513          	addi	a0,a0,-216 # 80001010 <poweroff_sifive_test>
800000f0:	01010113          	addi	sp,sp,16
800000f4:	0580006f          	j	8000014c <register_poweroff>

800000f8 <main>:
800000f8:	ff010113          	addi	sp,sp,-16
800000fc:	00112623          	sw	ra,12(sp)
80000100:	deadbeef          	jal	t4,7ffdb6ea <STACK_SIZE+0x7ffdb2ea>
80000104:	00001517          	auipc	a0,0x1
80000108:	84c50513          	addi	a0,a0,-1972 # 80000950 <_text_end>
8000010c:	2b0000ef          	jal	ra,800003bc <puts>
80000110:	0000006f          	j	80000110 <main+0x18>

80000114 <default_getchar>:
80000114:	00100073          	ebreak
80000118:	00000513          	li	a0,0
8000011c:	00008067          	ret

80000120 <default_putchar>:
80000120:	00100073          	ebreak
80000124:	00000513          	li	a0,0
80000128:	00008067          	ret

8000012c <default_poweroff>:
8000012c:	00100073          	ebreak
80000130:	0000006f          	j	80000130 <default_poweroff+0x4>

80000134 <register_console>:
80000134:	00052303          	lw	t1,0(a0)
80000138:	00001797          	auipc	a5,0x1
8000013c:	eca7a423          	sw	a0,-312(a5) # 80001000 <console_dev>
80000140:	00030463          	beqz	t1,80000148 <register_console+0x14>
80000144:	00030067          	jr	t1
80000148:	00008067          	ret

8000014c <register_poweroff>:
8000014c:	00052303          	lw	t1,0(a0)
80000150:	00001797          	auipc	a5,0x1
80000154:	eaa7aa23          	sw	a0,-332(a5) # 80001004 <poweroff_dev>
80000158:	00030463          	beqz	t1,80000160 <register_poweroff+0x14>
8000015c:	00030067          	jr	t1
80000160:	00008067          	ret

80000164 <libfemto_start_main>:
80000164:	fe010113          	addi	sp,sp,-32
80000168:	00812c23          	sw	s0,24(sp)
8000016c:	00001517          	auipc	a0,0x1
80000170:	ef450513          	addi	a0,a0,-268 # 80001060 <_data_end>
80000174:	00002417          	auipc	s0,0x2
80000178:	efc40413          	addi	s0,s0,-260 # 80002070 <_bss_end>
8000017c:	00000797          	auipc	a5,0x0
80000180:	7dc78793          	addi	a5,a5,2012 # 80000958 <_text_end+0x8>
80000184:	40a40633          	sub	a2,s0,a0
80000188:	00000593          	li	a1,0
8000018c:	00112e23          	sw	ra,28(sp)
80000190:	00f12423          	sw	a5,8(sp)
80000194:	00012623          	sw	zero,12(sp)
80000198:	1cc000ef          	jal	ra,80000364 <memset>
8000019c:	f35ff0ef          	jal	ra,800000d0 <arch_setup>
800001a0:	08000597          	auipc	a1,0x8000
800001a4:	e6058593          	addi	a1,a1,-416 # 88000000 <_memory_end>
800001a8:	408585b3          	sub	a1,a1,s0
800001ac:	00040513          	mv	a0,s0
800001b0:	17c000ef          	jal	ra,8000032c <_malloc_addblock>
800001b4:	00810593          	addi	a1,sp,8
800001b8:	00100513          	li	a0,1
800001bc:	f3dff0ef          	jal	ra,800000f8 <main>
800001c0:	14c000ef          	jal	ra,8000030c <exit>

800001c4 <trap_handler>:
800001c4:	00001717          	auipc	a4,0x1
800001c8:	e9c70713          	addi	a4,a4,-356 # 80001060 <_data_end>
800001cc:	00072303          	lw	t1,0(a4)
800001d0:	00030463          	beqz	t1,800001d8 <trap_handler+0x14>
800001d4:	00030067          	jr	t1
800001d8:	fe010113          	addi	sp,sp,-32
800001dc:	00812c23          	sw	s0,24(sp)
800001e0:	01a00513          	li	a0,26
800001e4:	00058413          	mv	s0,a1
800001e8:	00460593          	addi	a1,a2,4
800001ec:	00112e23          	sw	ra,28(sp)
800001f0:	00c12623          	sw	a2,12(sp)
800001f4:	538000ef          	jal	ra,8000072c <write_csr_enum>
800001f8:	00040593          	mv	a1,s0
800001fc:	01812403          	lw	s0,24(sp)
80000200:	00c12603          	lw	a2,12(sp)
80000204:	01c12083          	lw	ra,28(sp)
80000208:	00000517          	auipc	a0,0x0
8000020c:	75850513          	addi	a0,a0,1880 # 80000960 <_text_end+0x10>
80000210:	02010113          	addi	sp,sp,32
80000214:	16c0006f          	j	80000380 <printf>

80000218 <sifive_test_poweroff>:
80000218:	00001797          	auipc	a5,0x1
8000021c:	e4c78793          	addi	a5,a5,-436 # 80001064 <test>
80000220:	0007a703          	lw	a4,0(a5)
80000224:	000057b7          	lui	a5,0x5
80000228:	55578793          	addi	a5,a5,1365 # 5555 <STACK_SIZE+0x5155>
8000022c:	00f72023          	sw	a5,0(a4)
80000230:	0000006f          	j	80000230 <sifive_test_poweroff+0x18>

80000234 <sifive_test_init>:
80000234:	55550537          	lui	a0,0x55550
80000238:	ff010113          	addi	sp,sp,-16
8000023c:	00250513          	addi	a0,a0,2 # 55550002 <STACK_SIZE+0x5554fc02>
80000240:	00112623          	sw	ra,12(sp)
80000244:	4c0000ef          	jal	ra,80000704 <getauxval>
80000248:	00c12083          	lw	ra,12(sp)
8000024c:	00001797          	auipc	a5,0x1
80000250:	e0a7ac23          	sw	a0,-488(a5) # 80001064 <test>
80000254:	01010113          	addi	sp,sp,16
80000258:	00008067          	ret

8000025c <sifive_uart_getchar>:
8000025c:	00001797          	auipc	a5,0x1
80000260:	e0c78793          	addi	a5,a5,-500 # 80001068 <uart>
80000264:	0007a783          	lw	a5,0(a5)
80000268:	0047a503          	lw	a0,4(a5)
8000026c:	00055463          	bgez	a0,80000274 <sifive_uart_getchar+0x18>
80000270:	fff00513          	li	a0,-1
80000274:	00008067          	ret

80000278 <sifive_uart_putchar>:
80000278:	00001797          	auipc	a5,0x1
8000027c:	df078793          	addi	a5,a5,-528 # 80001068 <uart>
80000280:	0007a783          	lw	a5,0(a5)
80000284:	0007a703          	lw	a4,0(a5)
80000288:	fe074ee3          	bltz	a4,80000284 <sifive_uart_putchar+0xc>
8000028c:	0ff57513          	andi	a0,a0,255
80000290:	00a7a023          	sw	a0,0(a5)
80000294:	00008067          	ret

80000298 <sifive_uart_init>:
80000298:	55550537          	lui	a0,0x55550
8000029c:	ff010113          	addi	sp,sp,-16
800002a0:	01050513          	addi	a0,a0,16 # 55550010 <STACK_SIZE+0x5554fc10>
800002a4:	00112623          	sw	ra,12(sp)
800002a8:	00812423          	sw	s0,8(sp)
800002ac:	00912223          	sw	s1,4(sp)
800002b0:	454000ef          	jal	ra,80000704 <getauxval>
800002b4:	00001497          	auipc	s1,0x1
800002b8:	db448493          	addi	s1,s1,-588 # 80001068 <uart>
800002bc:	00a4a023          	sw	a0,0(s1)
800002c0:	00011537          	lui	a0,0x11
800002c4:	440000ef          	jal	ra,80000704 <getauxval>
800002c8:	00050413          	mv	s0,a0
800002cc:	00011537          	lui	a0,0x11
800002d0:	10050513          	addi	a0,a0,256 # 11100 <STACK_SIZE+0x10d00>
800002d4:	430000ef          	jal	ra,80000704 <getauxval>
800002d8:	02a45533          	divu	a0,s0,a0
800002dc:	0004a783          	lw	a5,0(s1)
800002e0:	00100713          	li	a4,1
800002e4:	00c12083          	lw	ra,12(sp)
800002e8:	00812403          	lw	s0,8(sp)
800002ec:	00412483          	lw	s1,4(sp)
800002f0:	fff50513          	addi	a0,a0,-1
800002f4:	00a7ac23          	sw	a0,24(a5)
800002f8:	00e7a423          	sw	a4,8(a5)
800002fc:	00e7a623          	sw	a4,12(a5)
80000300:	0007a823          	sw	zero,16(a5)
80000304:	01010113          	addi	sp,sp,16
80000308:	00008067          	ret

8000030c <exit>:
8000030c:	00001797          	auipc	a5,0x1
80000310:	cf878793          	addi	a5,a5,-776 # 80001004 <poweroff_dev>
80000314:	0007a783          	lw	a5,0(a5)
80000318:	ff010113          	addi	sp,sp,-16
8000031c:	00112623          	sw	ra,12(sp)
80000320:	0047a783          	lw	a5,4(a5)
80000324:	000780e7          	jalr	a5
80000328:	0000006f          	j	80000328 <exit+0x1c>

8000032c <_malloc_addblock>:
8000032c:	00001717          	auipc	a4,0x1
80000330:	cec70713          	addi	a4,a4,-788 # 80001018 <free_list>
80000334:	00350793          	addi	a5,a0,3
80000338:	ff458593          	addi	a1,a1,-12
8000033c:	ffc7f793          	andi	a5,a5,-4
80000340:	00472683          	lw	a3,4(a4)
80000344:	00a585b3          	add	a1,a1,a0
80000348:	40f585b3          	sub	a1,a1,a5
8000034c:	00b7a423          	sw	a1,8(a5)
80000350:	00f6a023          	sw	a5,0(a3)
80000354:	00d7a223          	sw	a3,4(a5)
80000358:	00e7a023          	sw	a4,0(a5)
8000035c:	00f72223          	sw	a5,4(a4)
80000360:	00008067          	ret

80000364 <memset>:
80000364:	00c50633          	add	a2,a0,a2
80000368:	00050793          	mv	a5,a0
8000036c:	00c79463          	bne	a5,a2,80000374 <memset+0x10>
80000370:	00008067          	ret
80000374:	00178793          	addi	a5,a5,1
80000378:	feb78fa3          	sb	a1,-1(a5)
8000037c:	ff1ff06f          	j	8000036c <memset+0x8>

80000380 <printf>:
80000380:	fc010113          	addi	sp,sp,-64
80000384:	02b12223          	sw	a1,36(sp)
80000388:	02410593          	addi	a1,sp,36
8000038c:	00112e23          	sw	ra,28(sp)
80000390:	02c12423          	sw	a2,40(sp)
80000394:	02d12623          	sw	a3,44(sp)
80000398:	02e12823          	sw	a4,48(sp)
8000039c:	02f12a23          	sw	a5,52(sp)
800003a0:	03012c23          	sw	a6,56(sp)
800003a4:	03112e23          	sw	a7,60(sp)
800003a8:	00b12623          	sw	a1,12(sp)
800003ac:	048000ef          	jal	ra,800003f4 <vprintf>
800003b0:	01c12083          	lw	ra,28(sp)
800003b4:	04010113          	addi	sp,sp,64
800003b8:	00008067          	ret

800003bc <puts>:
800003bc:	ff010113          	addi	sp,sp,-16
800003c0:	00812423          	sw	s0,8(sp)
800003c4:	00112623          	sw	ra,12(sp)
800003c8:	00050413          	mv	s0,a0
800003cc:	00044503          	lbu	a0,0(s0)
800003d0:	00051c63          	bnez	a0,800003e8 <puts+0x2c>
800003d4:	00812403          	lw	s0,8(sp)
800003d8:	00c12083          	lw	ra,12(sp)
800003dc:	00a00513          	li	a0,10
800003e0:	01010113          	addi	sp,sp,16
800003e4:	5580006f          	j	8000093c <putchar>
800003e8:	00140413          	addi	s0,s0,1
800003ec:	550000ef          	jal	ra,8000093c <putchar>
800003f0:	fddff06f          	j	800003cc <puts+0x10>

800003f4 <vprintf>:
800003f4:	fe010113          	addi	sp,sp,-32
800003f8:	00812c23          	sw	s0,24(sp)
800003fc:	00912a23          	sw	s1,20(sp)
80000400:	01212823          	sw	s2,16(sp)
80000404:	01312623          	sw	s3,12(sp)
80000408:	01412423          	sw	s4,8(sp)
8000040c:	00112e23          	sw	ra,28(sp)
80000410:	02010413          	addi	s0,sp,32
80000414:	00058693          	mv	a3,a1
80000418:	00050613          	mv	a2,a0
8000041c:	00050993          	mv	s3,a0
80000420:	00058a13          	mv	s4,a1
80000424:	00000513          	li	a0,0
80000428:	fff00593          	li	a1,-1
8000042c:	06c000ef          	jal	ra,80000498 <vsnprintf>
80000430:	01850793          	addi	a5,a0,24
80000434:	ff07f793          	andi	a5,a5,-16
80000438:	40f10133          	sub	sp,sp,a5
8000043c:	00f10493          	addi	s1,sp,15
80000440:	ff04f493          	andi	s1,s1,-16
80000444:	00050913          	mv	s2,a0
80000448:	00150593          	addi	a1,a0,1
8000044c:	000a0693          	mv	a3,s4
80000450:	00098613          	mv	a2,s3
80000454:	00048513          	mv	a0,s1
80000458:	040000ef          	jal	ra,80000498 <vsnprintf>
8000045c:	0004c503          	lbu	a0,0(s1)
80000460:	02051663          	bnez	a0,8000048c <vprintf+0x98>
80000464:	fe040113          	addi	sp,s0,-32
80000468:	01c12083          	lw	ra,28(sp)
8000046c:	00090513          	mv	a0,s2
80000470:	01812403          	lw	s0,24(sp)
80000474:	01412483          	lw	s1,20(sp)
80000478:	01012903          	lw	s2,16(sp)
8000047c:	00c12983          	lw	s3,12(sp)
80000480:	00812a03          	lw	s4,8(sp)
80000484:	02010113          	addi	sp,sp,32
80000488:	00008067          	ret
8000048c:	00148493          	addi	s1,s1,1
80000490:	4ac000ef          	jal	ra,8000093c <putchar>
80000494:	fc9ff06f          	j	8000045c <vprintf+0x68>

80000498 <vsnprintf>:
80000498:	fd010113          	addi	sp,sp,-48
8000049c:	02812623          	sw	s0,44(sp)
800004a0:	02912423          	sw	s1,40(sp)
800004a4:	03212223          	sw	s2,36(sp)
800004a8:	03312023          	sw	s3,32(sp)
800004ac:	01412e23          	sw	s4,28(sp)
800004b0:	01512c23          	sw	s5,24(sp)
800004b4:	01612a23          	sw	s6,20(sp)
800004b8:	01712823          	sw	s7,16(sp)
800004bc:	01812623          	sw	s8,12(sp)
800004c0:	01912423          	sw	s9,8(sp)
800004c4:	01a12223          	sw	s10,4(sp)
800004c8:	00000793          	li	a5,0
800004cc:	00000713          	li	a4,0
800004d0:	02500e13          	li	t3,37
800004d4:	06c00313          	li	t1,108
800004d8:	07300e93          	li	t4,115
800004dc:	07800f13          	li	t5,120
800004e0:	ffc00f93          	li	t6,-4
800004e4:	00900293          	li	t0,9
800004e8:	00800393          	li	t2,8
800004ec:	07000413          	li	s0,112
800004f0:	07800493          	li	s1,120
800004f4:	03000913          	li	s2,48
800004f8:	06300993          	li	s3,99
800004fc:	06400a13          	li	s4,100
80000500:	00a00893          	li	a7,10
80000504:	fff00a93          	li	s5,-1
80000508:	02d00b13          	li	s6,45
8000050c:	00064803          	lbu	a6,0(a2)
80000510:	04081663          	bnez	a6,8000055c <vsnprintf+0xc4>
80000514:	00050863          	beqz	a0,80000524 <vsnprintf+0x8c>
80000518:	1cb7fe63          	bgeu	a5,a1,800006f4 <vsnprintf+0x25c>
8000051c:	00f50533          	add	a0,a0,a5
80000520:	00050023          	sb	zero,0(a0)
80000524:	02c12403          	lw	s0,44(sp)
80000528:	02812483          	lw	s1,40(sp)
8000052c:	02412903          	lw	s2,36(sp)
80000530:	02012983          	lw	s3,32(sp)
80000534:	01c12a03          	lw	s4,28(sp)
80000538:	01812a83          	lw	s5,24(sp)
8000053c:	01412b03          	lw	s6,20(sp)
80000540:	01012b83          	lw	s7,16(sp)
80000544:	00c12c03          	lw	s8,12(sp)
80000548:	00812c83          	lw	s9,8(sp)
8000054c:	00412d03          	lw	s10,4(sp)
80000550:	00078513          	mv	a0,a5
80000554:	03010113          	addi	sp,sp,48
80000558:	00008067          	ret
8000055c:	16070a63          	beqz	a4,800006d0 <vsnprintf+0x238>
80000560:	00680863          	beq	a6,t1,80000570 <vsnprintf+0xd8>
80000564:	01036a63          	bltu	t1,a6,80000578 <vsnprintf+0xe0>
80000568:	15380463          	beq	a6,s3,800006b0 <vsnprintf+0x218>
8000056c:	09480863          	beq	a6,s4,800005fc <vsnprintf+0x164>
80000570:	00160613          	addi	a2,a2,1
80000574:	f99ff06f          	j	8000050c <vsnprintf+0x74>
80000578:	0fd80c63          	beq	a6,t4,80000670 <vsnprintf+0x1d8>
8000057c:	03e80663          	beq	a6,t5,800005a8 <vsnprintf+0x110>
80000580:	fe8818e3          	bne	a6,s0,80000570 <vsnprintf+0xd8>
80000584:	02050063          	beqz	a0,800005a4 <vsnprintf+0x10c>
80000588:	00b7f663          	bgeu	a5,a1,80000594 <vsnprintf+0xfc>
8000058c:	00f50733          	add	a4,a0,a5
80000590:	01270023          	sb	s2,0(a4)
80000594:	00178713          	addi	a4,a5,1
80000598:	00b77663          	bgeu	a4,a1,800005a4 <vsnprintf+0x10c>
8000059c:	00e50733          	add	a4,a0,a4
800005a0:	00970023          	sb	s1,0(a4)
800005a4:	00278793          	addi	a5,a5,2
800005a8:	0006ac03          	lw	s8,0(a3)
800005ac:	00000813          	li	a6,0
800005b0:	00468693          	addi	a3,a3,4
800005b4:	02050a63          	beqz	a0,800005e8 <vsnprintf+0x150>
800005b8:	01078bb3          	add	s7,a5,a6
800005bc:	02bbf663          	bgeu	s7,a1,800005e8 <vsnprintf+0x150>
800005c0:	03f80733          	mul	a4,a6,t6
800005c4:	01c70713          	addi	a4,a4,28
800005c8:	40ec5733          	sra	a4,s8,a4
800005cc:	00f77713          	andi	a4,a4,15
800005d0:	0ff77d13          	andi	s10,a4,255
800005d4:	057d0c93          	addi	s9,s10,87
800005d8:	00e2c463          	blt	t0,a4,800005e0 <vsnprintf+0x148>
800005dc:	030d0c93          	addi	s9,s10,48
800005e0:	01750bb3          	add	s7,a0,s7
800005e4:	019b8023          	sb	s9,0(s7)
800005e8:	00180813          	addi	a6,a6,1
800005ec:	fc7814e3          	bne	a6,t2,800005b4 <vsnprintf+0x11c>
800005f0:	00878793          	addi	a5,a5,8
800005f4:	00000713          	li	a4,0
800005f8:	f79ff06f          	j	80000570 <vsnprintf+0xd8>
800005fc:	00468c93          	addi	s9,a3,4
80000600:	0006a683          	lw	a3,0(a3)
80000604:	0006de63          	bgez	a3,80000620 <vsnprintf+0x188>
80000608:	40d006b3          	neg	a3,a3
8000060c:	00050863          	beqz	a0,8000061c <vsnprintf+0x184>
80000610:	00b7f663          	bgeu	a5,a1,8000061c <vsnprintf+0x184>
80000614:	00f50833          	add	a6,a0,a5
80000618:	01680023          	sb	s6,0(a6)
8000061c:	00178793          	addi	a5,a5,1
80000620:	00070813          	mv	a6,a4
80000624:	00068713          	mv	a4,a3
80000628:	03174733          	div	a4,a4,a7
8000062c:	02071e63          	bnez	a4,80000668 <vsnprintf+0x1d0>
80000630:	fff80b93          	addi	s7,a6,-1
80000634:	00050e63          	beqz	a0,80000650 <vsnprintf+0x1b8>
80000638:	01778c33          	add	s8,a5,s7
8000063c:	00bc7a63          	bgeu	s8,a1,80000650 <vsnprintf+0x1b8>
80000640:	0316ed33          	rem	s10,a3,a7
80000644:	01850c33          	add	s8,a0,s8
80000648:	030d0d13          	addi	s10,s10,48
8000064c:	01ac0023          	sb	s10,0(s8)
80000650:	fffb8b93          	addi	s7,s7,-1
80000654:	0316c6b3          	div	a3,a3,a7
80000658:	fd5b9ee3          	bne	s7,s5,80000634 <vsnprintf+0x19c>
8000065c:	010787b3          	add	a5,a5,a6
80000660:	000c8693          	mv	a3,s9
80000664:	f0dff06f          	j	80000570 <vsnprintf+0xd8>
80000668:	00180813          	addi	a6,a6,1
8000066c:	fbdff06f          	j	80000628 <vsnprintf+0x190>
80000670:	0006ab83          	lw	s7,0(a3)
80000674:	00468813          	addi	a6,a3,4
80000678:	00078713          	mv	a4,a5
8000067c:	40f706b3          	sub	a3,a4,a5
80000680:	00db86b3          	add	a3,s7,a3
80000684:	0006c683          	lbu	a3,0(a3)
80000688:	00069863          	bnez	a3,80000698 <vsnprintf+0x200>
8000068c:	00080693          	mv	a3,a6
80000690:	00070793          	mv	a5,a4
80000694:	f61ff06f          	j	800005f4 <vsnprintf+0x15c>
80000698:	00050863          	beqz	a0,800006a8 <vsnprintf+0x210>
8000069c:	00b77663          	bgeu	a4,a1,800006a8 <vsnprintf+0x210>
800006a0:	00e50c33          	add	s8,a0,a4
800006a4:	00dc0023          	sb	a3,0(s8)
800006a8:	00170713          	addi	a4,a4,1
800006ac:	fd1ff06f          	j	8000067c <vsnprintf+0x1e4>
800006b0:	00050c63          	beqz	a0,800006c8 <vsnprintf+0x230>
800006b4:	00b7fa63          	bgeu	a5,a1,800006c8 <vsnprintf+0x230>
800006b8:	0006a803          	lw	a6,0(a3)
800006bc:	00f50733          	add	a4,a0,a5
800006c0:	00468693          	addi	a3,a3,4
800006c4:	01070023          	sb	a6,0(a4)
800006c8:	00178793          	addi	a5,a5,1
800006cc:	f29ff06f          	j	800005f4 <vsnprintf+0x15c>
800006d0:	01c80e63          	beq	a6,t3,800006ec <vsnprintf+0x254>
800006d4:	00050863          	beqz	a0,800006e4 <vsnprintf+0x24c>
800006d8:	00b7f663          	bgeu	a5,a1,800006e4 <vsnprintf+0x24c>
800006dc:	00f50c33          	add	s8,a0,a5
800006e0:	010c0023          	sb	a6,0(s8)
800006e4:	00178793          	addi	a5,a5,1
800006e8:	e89ff06f          	j	80000570 <vsnprintf+0xd8>
800006ec:	00100713          	li	a4,1
800006f0:	e81ff06f          	j	80000570 <vsnprintf+0xd8>
800006f4:	e20588e3          	beqz	a1,80000524 <vsnprintf+0x8c>
800006f8:	00b50533          	add	a0,a0,a1
800006fc:	fe050fa3          	sb	zero,-1(a0)
80000700:	e25ff06f          	j	80000524 <vsnprintf+0x8c>

80000704 <getauxval>:
80000704:	00001717          	auipc	a4,0x1
80000708:	91c70713          	addi	a4,a4,-1764 # 80001020 <__auxv>
8000070c:	00072783          	lw	a5,0(a4)
80000710:	00078663          	beqz	a5,8000071c <getauxval+0x18>
80000714:	00a79863          	bne	a5,a0,80000724 <getauxval+0x20>
80000718:	00472783          	lw	a5,4(a4)
8000071c:	00078513          	mv	a0,a5
80000720:	00008067          	ret
80000724:	00870713          	addi	a4,a4,8
80000728:	fe5ff06f          	j	8000070c <getauxval+0x8>

8000072c <write_csr_enum>:
8000072c:	fff50513          	addi	a0,a0,-1
80000730:	03c00793          	li	a5,60
80000734:	20a7e263          	bltu	a5,a0,80000938 <write_csr_enum+0x20c>
80000738:	00000717          	auipc	a4,0x0
8000073c:	25870713          	addi	a4,a4,600 # 80000990 <_text_end+0x40>
80000740:	00251513          	slli	a0,a0,0x2
80000744:	00e50533          	add	a0,a0,a4
80000748:	00052783          	lw	a5,0(a0)
8000074c:	00e787b3          	add	a5,a5,a4
80000750:	00078067          	jr	a5
80000754:	00159073          	fsflags	a1
80000758:	00008067          	ret
8000075c:	00259073          	fsrm	a1
80000760:	00008067          	ret
80000764:	00359073          	fssr	a1
80000768:	00008067          	ret
8000076c:	b0059073          	csrw	mcycle,a1
80000770:	00008067          	ret
80000774:	b0259073          	csrw	minstret,a1
80000778:	00008067          	ret
8000077c:	b8059073          	csrw	mcycleh,a1
80000780:	00008067          	ret
80000784:	b8259073          	csrw	minstreth,a1
80000788:	00008067          	ret
8000078c:	c0059073          	csrw	cycle,a1
80000790:	00008067          	ret
80000794:	c0159073          	csrw	time,a1
80000798:	00008067          	ret
8000079c:	c0259073          	csrw	instret,a1
800007a0:	00008067          	ret
800007a4:	c8059073          	csrw	cycleh,a1
800007a8:	00008067          	ret
800007ac:	c8159073          	csrw	timeh,a1
800007b0:	00008067          	ret
800007b4:	c8259073          	csrw	instreth,a1
800007b8:	00008067          	ret
800007bc:	f1159073          	csrw	mvendorid,a1
800007c0:	00008067          	ret
800007c4:	f1259073          	csrw	marchid,a1
800007c8:	00008067          	ret
800007cc:	f1359073          	csrw	mimpid,a1
800007d0:	00008067          	ret
800007d4:	f1459073          	csrw	mhartid,a1
800007d8:	00008067          	ret
800007dc:	30059073          	csrw	mstatus,a1
800007e0:	00008067          	ret
800007e4:	30159073          	csrw	misa,a1
800007e8:	00008067          	ret
800007ec:	30259073          	csrw	medeleg,a1
800007f0:	00008067          	ret
800007f4:	30359073          	csrw	mideleg,a1
800007f8:	00008067          	ret
800007fc:	30459073          	csrw	mie,a1
80000800:	00008067          	ret
80000804:	30559073          	csrw	mtvec,a1
80000808:	00008067          	ret
8000080c:	30659073          	csrw	mcounteren,a1
80000810:	00008067          	ret
80000814:	34059073          	csrw	mscratch,a1
80000818:	00008067          	ret
8000081c:	34159073          	csrw	mepc,a1
80000820:	00008067          	ret
80000824:	34259073          	csrw	mcause,a1
80000828:	00008067          	ret
8000082c:	34359073          	csrw	mtval,a1
80000830:	00008067          	ret
80000834:	34459073          	csrw	mip,a1
80000838:	00008067          	ret
8000083c:	10059073          	csrw	sstatus,a1
80000840:	00008067          	ret
80000844:	10259073          	csrw	sedeleg,a1
80000848:	00008067          	ret
8000084c:	10359073          	csrw	sideleg,a1
80000850:	00008067          	ret
80000854:	10459073          	csrw	sie,a1
80000858:	00008067          	ret
8000085c:	10559073          	csrw	stvec,a1
80000860:	00008067          	ret
80000864:	10659073          	csrw	scounteren,a1
80000868:	00008067          	ret
8000086c:	14059073          	csrw	sscratch,a1
80000870:	00008067          	ret
80000874:	14159073          	csrw	sepc,a1
80000878:	00008067          	ret
8000087c:	14259073          	csrw	scause,a1
80000880:	00008067          	ret
80000884:	14359073          	csrw	stval,a1
80000888:	00008067          	ret
8000088c:	14459073          	csrw	sip,a1
80000890:	00008067          	ret
80000894:	18059073          	csrw	satp,a1
80000898:	00008067          	ret
8000089c:	3a059073          	csrw	pmpcfg0,a1
800008a0:	00008067          	ret
800008a4:	3a159073          	csrw	pmpcfg1,a1
800008a8:	00008067          	ret
800008ac:	3a259073          	csrw	pmpcfg2,a1
800008b0:	00008067          	ret
800008b4:	3a359073          	csrw	pmpcfg3,a1
800008b8:	00008067          	ret
800008bc:	3b059073          	csrw	pmpaddr0,a1
800008c0:	00008067          	ret
800008c4:	3b159073          	csrw	pmpaddr1,a1
800008c8:	00008067          	ret
800008cc:	3b259073          	csrw	pmpaddr2,a1
800008d0:	00008067          	ret
800008d4:	3b359073          	csrw	pmpaddr3,a1
800008d8:	00008067          	ret
800008dc:	3b459073          	csrw	pmpaddr4,a1
800008e0:	00008067          	ret
800008e4:	3b559073          	csrw	pmpaddr5,a1
800008e8:	00008067          	ret
800008ec:	3b659073          	csrw	pmpaddr6,a1
800008f0:	00008067          	ret
800008f4:	3b759073          	csrw	pmpaddr7,a1
800008f8:	00008067          	ret
800008fc:	3b859073          	csrw	pmpaddr8,a1
80000900:	00008067          	ret
80000904:	3b959073          	csrw	pmpaddr9,a1
80000908:	00008067          	ret
8000090c:	3ba59073          	csrw	pmpaddr10,a1
80000910:	00008067          	ret
80000914:	3bb59073          	csrw	pmpaddr11,a1
80000918:	00008067          	ret
8000091c:	3bc59073          	csrw	pmpaddr12,a1
80000920:	00008067          	ret
80000924:	3bd59073          	csrw	pmpaddr13,a1
80000928:	00008067          	ret
8000092c:	3be59073          	csrw	pmpaddr14,a1
80000930:	00008067          	ret
80000934:	3bf59073          	csrw	pmpaddr15,a1
80000938:	00008067          	ret

8000093c <putchar>:
8000093c:	00000797          	auipc	a5,0x0
80000940:	6c478793          	addi	a5,a5,1732 # 80001000 <console_dev>
80000944:	0007a783          	lw	a5,0(a5)
80000948:	0087a303          	lw	t1,8(a5)
8000094c:	00030067          	jr	t1

Disassembly of section .rodata:

80000950 <_rodata_start>:
80000950:	6568                	flw	fa0,76(a0)
80000952:	6c6c                	flw	fa1,92(s0)
80000954:	0000006f          	j	80000954 <_rodata_start+0x4>
80000958:	6566                	flw	fa0,88(sp)
8000095a:	746d                	lui	s0,0xffffb
8000095c:	0000006f          	j	8000095c <_rodata_start+0xc>
80000960:	616d                	addi	sp,sp,240
80000962:	6e696863          	bltu	s2,t1,80001052 <console_none+0xa>
80000966:	2065                	jal	80000a0e <_rodata_start+0xbe>
80000968:	6f6d                	lui	t5,0x1b
8000096a:	6564                	flw	fs1,76(a0)
8000096c:	203a                	fld	ft0,392(sp)
8000096e:	70696b73          	csrrsi	s6,0x706,18
80000972:	7520                	flw	fs0,104(a0)
80000974:	686e                	flw	fa6,216(sp)
80000976:	6e61                	lui	t3,0x18
80000978:	6c64                	flw	fs1,92(s0)
8000097a:	6261                	lui	tp,0x18
8000097c:	656c                	flw	fa1,76(a0)
8000097e:	7420                	flw	fs0,104(s0)
80000980:	6172                	flw	ft2,28(sp)
80000982:	2070                	fld	fa2,192(s0)
80000984:	6425                	lui	s0,0x9
80000986:	4020                	lw	s0,64(s0)
80000988:	2520                	fld	fs0,72(a0)
8000098a:	0a70                	addi	a2,sp,284
8000098c:	000d                	c.nop	3
8000098e:	0000                	unimp
80000990:	fdc4                	fsw	fs1,60(a1)
80000992:	ffff                	0xffff
80000994:	fdcc                	fsw	fa1,60(a1)
80000996:	ffff                	0xffff
80000998:	fdd4                	fsw	fa3,60(a1)
8000099a:	ffff                	0xffff
8000099c:	fddc                	fsw	fa5,60(a1)
8000099e:	ffff                	0xffff
800009a0:	fde4                	fsw	fs1,124(a1)
800009a2:	ffff                	0xffff
800009a4:	fdec                	fsw	fa1,124(a1)
800009a6:	ffff                	0xffff
800009a8:	fdf4                	fsw	fa3,124(a1)
800009aa:	ffff                	0xffff
800009ac:	fdfc                	fsw	fa5,124(a1)
800009ae:	ffff                	0xffff
800009b0:	fe04                	fsw	fs1,56(a2)
800009b2:	ffff                	0xffff
800009b4:	fe0c                	fsw	fa1,56(a2)
800009b6:	ffff                	0xffff
800009b8:	fe14                	fsw	fa3,56(a2)
800009ba:	ffff                	0xffff
800009bc:	fe1c                	fsw	fa5,56(a2)
800009be:	ffff                	0xffff
800009c0:	fe24                	fsw	fs1,120(a2)
800009c2:	ffff                	0xffff
800009c4:	fe2c                	fsw	fa1,120(a2)
800009c6:	ffff                	0xffff
800009c8:	fe34                	fsw	fa3,120(a2)
800009ca:	ffff                	0xffff
800009cc:	fe3c                	fsw	fa5,120(a2)
800009ce:	ffff                	0xffff
800009d0:	fe44                	fsw	fs1,60(a2)
800009d2:	ffff                	0xffff
800009d4:	fe4c                	fsw	fa1,60(a2)
800009d6:	ffff                	0xffff
800009d8:	fe54                	fsw	fa3,60(a2)
800009da:	ffff                	0xffff
800009dc:	fe5c                	fsw	fa5,60(a2)
800009de:	ffff                	0xffff
800009e0:	fe64                	fsw	fs1,124(a2)
800009e2:	ffff                	0xffff
800009e4:	fe6c                	fsw	fa1,124(a2)
800009e6:	ffff                	0xffff
800009e8:	fe74                	fsw	fa3,124(a2)
800009ea:	ffff                	0xffff
800009ec:	fe7c                	fsw	fa5,124(a2)
800009ee:	ffff                	0xffff
800009f0:	fe84                	fsw	fs1,56(a3)
800009f2:	ffff                	0xffff
800009f4:	fe8c                	fsw	fa1,56(a3)
800009f6:	ffff                	0xffff
800009f8:	fe94                	fsw	fa3,56(a3)
800009fa:	ffff                	0xffff
800009fc:	fe9c                	fsw	fa5,56(a3)
800009fe:	ffff                	0xffff
80000a00:	fea4                	fsw	fs1,120(a3)
80000a02:	ffff                	0xffff
80000a04:	feac                	fsw	fa1,120(a3)
80000a06:	ffff                	0xffff
80000a08:	feb4                	fsw	fa3,120(a3)
80000a0a:	ffff                	0xffff
80000a0c:	febc                	fsw	fa5,120(a3)
80000a0e:	ffff                	0xffff
80000a10:	fec4                	fsw	fs1,60(a3)
80000a12:	ffff                	0xffff
80000a14:	fecc                	fsw	fa1,60(a3)
80000a16:	ffff                	0xffff
80000a18:	fed4                	fsw	fa3,60(a3)
80000a1a:	ffff                	0xffff
80000a1c:	fedc                	fsw	fa5,60(a3)
80000a1e:	ffff                	0xffff
80000a20:	fee4                	fsw	fs1,124(a3)
80000a22:	ffff                	0xffff
80000a24:	feec                	fsw	fa1,124(a3)
80000a26:	ffff                	0xffff
80000a28:	fef4                	fsw	fa3,124(a3)
80000a2a:	ffff                	0xffff
80000a2c:	fefc                	fsw	fa5,124(a3)
80000a2e:	ffff                	0xffff
80000a30:	ff04                	fsw	fs1,56(a4)
80000a32:	ffff                	0xffff
80000a34:	ff0c                	fsw	fa1,56(a4)
80000a36:	ffff                	0xffff
80000a38:	ff14                	fsw	fa3,56(a4)
80000a3a:	ffff                	0xffff
80000a3c:	ff1c                	fsw	fa5,56(a4)
80000a3e:	ffff                	0xffff
80000a40:	ff24                	fsw	fs1,120(a4)
80000a42:	ffff                	0xffff
80000a44:	ff2c                	fsw	fa1,120(a4)
80000a46:	ffff                	0xffff
80000a48:	ff34                	fsw	fa3,120(a4)
80000a4a:	ffff                	0xffff
80000a4c:	ff3c                	fsw	fa5,120(a4)
80000a4e:	ffff                	0xffff
80000a50:	ff44                	fsw	fs1,60(a4)
80000a52:	ffff                	0xffff
80000a54:	ff4c                	fsw	fa1,60(a4)
80000a56:	ffff                	0xffff
80000a58:	ff54                	fsw	fa3,60(a4)
80000a5a:	ffff                	0xffff
80000a5c:	ff5c                	fsw	fa5,60(a4)
80000a5e:	ffff                	0xffff
80000a60:	ff64                	fsw	fs1,124(a4)
80000a62:	ffff                	0xffff
80000a64:	ff6c                	fsw	fa1,124(a4)
80000a66:	ffff                	0xffff
80000a68:	ff74                	fsw	fa3,124(a4)
80000a6a:	ffff                	0xffff
80000a6c:	ff7c                	fsw	fa5,124(a4)
80000a6e:	ffff                	0xffff
80000a70:	ff84                	fsw	fs1,56(a5)
80000a72:	ffff                	0xffff
80000a74:	ff8c                	fsw	fa1,56(a5)
80000a76:	ffff                	0xffff
80000a78:	ff94                	fsw	fa3,56(a5)
80000a7a:	ffff                	0xffff
80000a7c:	ff9c                	fsw	fa5,56(a5)
80000a7e:	ffff                	0xffff
80000a80:	ffa4                	fsw	fs1,120(a5)
80000a82:	ffff                	0xffff

Disassembly of section .data:

80000a84 <console_dev-0x57c>:
	...

80001000 <console_dev>:
80001000:	1048                	addi	a0,sp,36
80001002:	8000                	0x8000

80001004 <poweroff_dev>:
80001004:	1008                	addi	a0,sp,32
80001006:	8000                	0x8000

80001008 <poweroff_none>:
80001008:	0000                	unimp
8000100a:	0000                	unimp
8000100c:	012c                	addi	a1,sp,136
8000100e:	8000                	0x8000

80001010 <poweroff_sifive_test>:
80001010:	0234                	addi	a3,sp,264
80001012:	8000                	0x8000
80001014:	0218                	addi	a4,sp,256
80001016:	8000                	0x8000

80001018 <free_list>:
80001018:	1018                	addi	a4,sp,32
8000101a:	8000                	0x8000
8000101c:	1018                	addi	a4,sp,32
8000101e:	8000                	0x8000

80001020 <__auxv>:
80001020:	1000                	addi	s0,sp,32
80001022:	0001                	nop
80001024:	4800                	lw	s0,16(s0)
80001026:	01e8                	addi	a0,sp,204
80001028:	1100                	addi	s0,sp,160
8000102a:	0001                	nop
8000102c:	c200                	sw	s0,0(a2)
8000102e:	0001                	nop
80001030:	0010                	0x10
80001032:	5555                	li	a0,-11
80001034:	0000                	unimp
80001036:	1001                	c.nop	-32
80001038:	0002                	c.slli64	zero
8000103a:	5555                	li	a0,-11
8000103c:	0000                	unimp
8000103e:	0010                	0x10
	...

80001048 <console_none>:
80001048:	0000                	unimp
8000104a:	0000                	unimp
8000104c:	0114                	addi	a3,sp,128
8000104e:	8000                	0x8000
80001050:	0120                	addi	s0,sp,136
80001052:	8000                	0x8000

80001054 <console_sifive_uart>:
80001054:	0298                	addi	a4,sp,320
80001056:	8000                	0x8000
80001058:	025c                	addi	a5,sp,260
8000105a:	8000                	0x8000
8000105c:	0278                	addi	a4,sp,268
8000105e:	8000                	0x8000

Disassembly of section .bss:

80001060 <_bss_start>:
80001060:	0000                	unimp
	...

80001064 <test>:
80001064:	0000                	unimp
	...

80001068 <uart>:
	...

80001070 <stacks>:
	...

Disassembly of section .riscv.attributes:

00000000 <.riscv.attributes>:
   0:	2341                	jal	580 <STACK_SIZE+0x180>
   2:	0000                	unimp
   4:	7200                	flw	fs0,32(a2)
   6:	7369                	lui	t1,0xffffa
   8:	01007663          	bgeu	zero,a6,14 <SAVE_REGS+0x4>
   c:	0019                	c.nop	6
   e:	0000                	unimp
  10:	7205                	lui	tp,0xfffe1
  12:	3376                	fld	ft6,376(sp)
  14:	6932                	flw	fs2,12(sp)
  16:	7032                	flw	ft0,44(sp)
  18:	5f30                	lw	a2,120(a4)
  1a:	326d                	jal	fffff9c4 <_memory_end+0x77fff9c4>
  1c:	3070                	fld	fa2,224(s0)
  1e:	615f 7032 0030      	0x307032615f

Disassembly of section .comment:

00000000 <.comment>:
   0:	3a434347          	fmsub.d	ft6,ft6,ft4,ft7,rmm
   4:	2820                	fld	fs0,80(s0)
   6:	29554e47          	fmsub.s	ft8,fa0,fs5,ft5,rmm
   a:	3820                	fld	fs0,112(s0)
   c:	332e                	fld	ft6,232(sp)
   e:	302e                	fld	ft0,232(sp)
	...
